target datalayout = "e-m:e-p270:32:32-p271:32:32-p272:64:64-i64:64-i128:128-f80:128-n8:16:32:64-S128"
target triple = "x86_64-pc-linux-gnu"

%struct._zend_array = type { %struct._zend_refcounted_h, %union.anon.0, i32, %union.anon.1, i32, i32, i32, i32, i64, ptr }
%struct._zend_refcounted_h = type { i32, %union.anon }
%union.anon = type { i32 }
%union.anon.0 = type { i32 }
%union.anon.1 = type { ptr }
%struct._zval_struct = type { %union._zend_value, %union.anon.3, %union.anon.6 }
%union._zend_value = type { i64 }
%union.anon.3 = type { i32 }
%union.anon.6 = type { i32 }
%struct._zend_op_array = type { i8, [3 x i8], i32, ptr, ptr, ptr, i32, i32, ptr, ptr, ptr, ptr, i32, ptr, i32, i32, i32, ptr, ptr, ptr, ptr, ptr, i32, i32, ptr, ptr, ptr, i32, i32, i32, i32, ptr, ptr, [6 x ptr] }
%struct._zend_string = type { %struct._zend_refcounted_h, i64, i64, [1 x i8] }
%struct._zend_persistent_script = type { %struct._zend_script, i64, i32, i64, i8, i8, i8, i32, i32, ptr, ptr, ptr, i64, %struct.zend_persistent_script_dynamic_members }
%struct._zend_script = type { ptr, %struct._zend_op_array, %struct._zend_array, %struct._zend_array }
%struct.zend_persistent_script_dynamic_members = type { i64, i64, i32, i64 }

@preload_orig_compile_file = internal global ptr null, align 8
@preload_scripts = internal global ptr null, align 8

; Function Attrs: alwaysinline nounwind uwtable
define internal i32 @zend_gc_addref(ptr noundef %0) #3 {
  %2 = alloca ptr, align 8
  store ptr %0, ptr %2, align 8, !tbaa !66
  br label %3

3:                                                ; preds = %1
  br label %4

4:                                                ; preds = %3
  %5 = load ptr, ptr %2, align 8, !tbaa !66
  %6 = getelementptr inbounds nuw %struct._zend_refcounted_h, ptr %5, i32 0, i32 0
  %7 = load i32, ptr %6, align 4, !tbaa !68
  %8 = add i32 %7, 1
  store i32 %8, ptr %6, align 4, !tbaa !68
  ret i32 %8
}

; Function Attrs: alwaysinline nounwind uwtable
define internal i32 @zval_gc_flags(i32 noundef %0) #3 {
  %2 = alloca i32, align 4
  store i32 %0, ptr %2, align 4, !tbaa !4
  %3 = load i32, ptr %2, align 4, !tbaa !4
  %4 = lshr i32 %3, 0
  %5 = and i32 %4, 1008
  ret i32 %5
}

; Function Attrs: alwaysinline nounwind uwtable
define internal ptr @zend_hash_add_ptr(ptr noundef %0, ptr noundef %1, ptr noundef %2) #3 {
  %4 = alloca ptr, align 8
  %5 = alloca ptr, align 8
  %6 = alloca ptr, align 8
  %7 = alloca ptr, align 8
  %8 = alloca %struct._zval_struct, align 8
  %9 = alloca ptr, align 8
  %10 = alloca i32, align 4
  store ptr %0, ptr %5, align 8, !tbaa !200
  store ptr %1, ptr %6, align 8, !tbaa !52
  store ptr %2, ptr %7, align 8, !tbaa !40
  call void @llvm.lifetime.start.p0(i64 16, ptr %8) #19
  call void @llvm.lifetime.start.p0(i64 8, ptr %9) #19
  br label %11

11:                                               ; preds = %3
  %12 = load ptr, ptr %7, align 8, !tbaa !40
  %13 = getelementptr inbounds nuw %struct._zval_struct, ptr %8, i32 0, i32 0
  store ptr %12, ptr %13, align 8, !tbaa !65
  %14 = getelementptr inbounds nuw %struct._zval_struct, ptr %8, i32 0, i32 1
  store i32 13, ptr %14, align 8, !tbaa !65
  br label %15

15:                                               ; preds = %11
  br label %16

16:                                               ; preds = %15
  %17 = load ptr, ptr %5, align 8, !tbaa !200
  %18 = load ptr, ptr %6, align 8, !tbaa !52
  %19 = call ptr @zend_hash_add(ptr noundef %17, ptr noundef %18, ptr noundef %8)
  store ptr %19, ptr %9, align 8, !tbaa !222
  %20 = load ptr, ptr %9, align 8, !tbaa !222
  %21 = icmp ne ptr %20, null
  br i1 %21, label %22, label %30

22:                                               ; preds = %16
  %23 = load ptr, ptr %9, align 8, !tbaa !222
  %24 = getelementptr inbounds nuw %struct._zval_struct, ptr %23, i32 0, i32 0
  %25 = load ptr, ptr %24, align 8, !tbaa !65
  %26 = icmp ne ptr %25, null
  call void @llvm.assume(i1 %26)
  %27 = load ptr, ptr %9, align 8, !tbaa !222
  %28 = getelementptr inbounds nuw %struct._zval_struct, ptr %27, i32 0, i32 0
  %29 = load ptr, ptr %28, align 8, !tbaa !65
  store ptr %29, ptr %4, align 8
  store i32 1, ptr %10, align 4
  br label %31

30:                                               ; preds = %16
  store ptr null, ptr %4, align 8
  store i32 1, ptr %10, align 4
  br label %31

31:                                               ; preds = %30, %22
  call void @llvm.lifetime.end.p0(i64 8, ptr %9) #19
  call void @llvm.lifetime.end.p0(i64 16, ptr %8) #19
  %32 = load ptr, ptr %4, align 8
  ret ptr %32
}

; Function Attrs: alwaysinline nounwind uwtable
define internal i64 @zend_string_hash_val(ptr noundef %0) #3 {
  %2 = alloca ptr, align 8
  store ptr %0, ptr %2, align 8, !tbaa !52
  %3 = load ptr, ptr %2, align 8, !tbaa !52
  %4 = getelementptr inbounds nuw %struct._zend_string, ptr %3, i32 0, i32 1
  %5 = load i64, ptr %4, align 8, !tbaa !60
  %6 = icmp ne i64 %5, 0
  br i1 %6, label %7, label %11

7:                                                ; preds = %1
  %8 = load ptr, ptr %2, align 8, !tbaa !52
  %9 = getelementptr inbounds nuw %struct._zend_string, ptr %8, i32 0, i32 1
  %10 = load i64, ptr %9, align 8, !tbaa !60
  br label %14

11:                                               ; preds = %1
  %12 = load ptr, ptr %2, align 8, !tbaa !52
  %13 = call i64 @zend_string_hash_func(ptr noundef %12)
  br label %14

14:                                               ; preds = %11, %7
  %15 = phi i64 [ %10, %7 ], [ %13, %11 ]
  ret i64 %15
}

; Function Attrs: alwaysinline nounwind uwtable
define internal ptr @zend_string_copy(ptr noundef %0) #3 {
  %2 = alloca ptr, align 8
  store ptr %0, ptr %2, align 8, !tbaa !52
  %3 = load ptr, ptr %2, align 8, !tbaa !52
  %4 = getelementptr inbounds nuw %struct._zend_string, ptr %3, i32 0, i32 0
  %5 = getelementptr inbounds nuw %struct._zend_refcounted_h, ptr %4, i32 0, i32 1
  %6 = load i32, ptr %5, align 4, !tbaa !65
  %7 = call i32 @zval_gc_flags(i32 noundef %6)
  %8 = and i32 %7, 64
  %9 = icmp ne i32 %8, 0
  br i1 %9, label %14, label %10

10:                                               ; preds = %1
  %11 = load ptr, ptr %2, align 8, !tbaa !52
  %12 = getelementptr inbounds nuw %struct._zend_string, ptr %11, i32 0, i32 0
  %13 = call i32 @zend_gc_addref(ptr noundef %12)
  br label %14

14:                                               ; preds = %10, %1
  %15 = load ptr, ptr %2, align 8, !tbaa !52
  ret ptr %15
}

; Function Attrs: nounwind uwtable
define internal ptr @preload_compile_file(ptr noundef %0, i32 noundef %1) #0 {
  %3 = alloca ptr, align 8
  %4 = alloca i32, align 4
  %5 = alloca ptr, align 8
  %6 = alloca ptr, align 8
  store ptr %0, ptr %3, align 8, !tbaa !69
  store i32 %1, ptr %4, align 4, !tbaa !4
  call void @llvm.lifetime.start.p0(i64 8, ptr %5) #19
  %7 = load ptr, ptr @preload_orig_compile_file, align 8, !tbaa !40
  %8 = load ptr, ptr %3, align 8, !tbaa !69
  %9 = load i32, ptr %4, align 4, !tbaa !4
  %10 = call ptr %7(ptr noundef %8, i32 noundef %9)
  store ptr %10, ptr %5, align 8, !tbaa !183
  %11 = load ptr, ptr %5, align 8, !tbaa !183
  %12 = icmp ne ptr %11, null
  br i1 %12, label %13, label %45

13:                                               ; preds = %2
  %14 = load ptr, ptr %5, align 8, !tbaa !183
  %15 = getelementptr inbounds nuw %struct._zend_op_array, ptr %14, i32 0, i32 21
  %16 = load ptr, ptr %15, align 8, !tbaa !446
  %17 = icmp ne ptr %16, null
  br i1 %17, label %18, label %45

18:                                               ; preds = %13
  call void @llvm.lifetime.start.p0(i64 8, ptr %6) #19
  %19 = call ptr @create_persistent_script()
  store ptr %19, ptr %6, align 8, !tbaa !136
  %20 = load ptr, ptr %5, align 8, !tbaa !183
  %21 = getelementptr inbounds nuw %struct._zend_op_array, ptr %20, i32 0, i32 26
  %22 = load ptr, ptr %21, align 8, !tbaa !447
  %23 = call ptr @zend_string_copy(ptr noundef %22)
  %24 = load ptr, ptr %6, align 8, !tbaa !136
  %25 = getelementptr inbounds nuw %struct._zend_persistent_script, ptr %24, i32 0, i32 0
  %26 = getelementptr inbounds nuw %struct._zend_script, ptr %25, i32 0, i32 0
  store ptr %23, ptr %26, align 8, !tbaa !153
  %27 = load ptr, ptr %6, align 8, !tbaa !136
  %28 = getelementptr inbounds nuw %struct._zend_persistent_script, ptr %27, i32 0, i32 0
  %29 = getelementptr inbounds nuw %struct._zend_script, ptr %28, i32 0, i32 0
  %30 = load ptr, ptr %29, align 8, !tbaa !153
  %31 = call i64 @zend_string_hash_val(ptr noundef %30)
  %32 = load ptr, ptr %6, align 8, !tbaa !136
  %33 = getelementptr inbounds nuw %struct._zend_persistent_script, ptr %32, i32 0, i32 0
  %34 = getelementptr inbounds nuw %struct._zend_script, ptr %33, i32 0, i32 1
  %35 = load ptr, ptr %5, align 8, !tbaa !183
  call void @llvm.memcpy.p0.p0.i64(ptr align 8 %34, ptr align 8 %35, i64 256, i1 false), !tbaa.struct !229
  %36 = load ptr, ptr %5, align 8, !tbaa !183
  %37 = getelementptr inbounds nuw %struct._zend_op_array, ptr %36, i32 0, i32 21
  store ptr null, ptr %37, align 8, !tbaa !446
  %38 = load ptr, ptr @preload_scripts, align 8, !tbaa !200
  %39 = load ptr, ptr %6, align 8, !tbaa !136
  %40 = getelementptr inbounds nuw %struct._zend_persistent_script, ptr %39, i32 0, i32 0
  %41 = getelementptr inbounds nuw %struct._zend_script, ptr %40, i32 0, i32 0
  %42 = load ptr, ptr %41, align 8, !tbaa !153
  %43 = load ptr, ptr %6, align 8, !tbaa !136
  %44 = call ptr @zend_hash_add_ptr(ptr noundef %38, ptr noundef %42, ptr noundef %43)
  call void @llvm.lifetime.end.p0(i64 8, ptr %6) #19
  br label %45

45:                                               ; preds = %18, %13, %2
  %46 = load ptr, ptr %5, align 8, !tbaa !183
  call void @llvm.lifetime.end.p0(i64 8, ptr %5) #19
  ret ptr %46
}