; Function Attrs: nounwind uwtable
define internal ptr @preload_compile_file(ptr noundef %0, i32 noundef %1) #0 {
  %3 = alloca %struct._zval_struct, align 8
  %4 = load ptr, ptr @preload_orig_compile_file, align 8, !tbaa !39
  %5 = tail call ptr %4(ptr noundef %0, i32 noundef %1) #26
  %.not = icmp eq ptr %5, null
  br i1 %.not, label %28, label %6

6:                                                ; preds = %2
  %7 = getelementptr inbounds nuw i8, ptr %5, i64 136
  %8 = load ptr, ptr %7, align 8, !tbaa !404
  %.not12 = icmp eq ptr %8, null
  br i1 %.not12, label %28, label %9

9:                                                ; preds = %6
  %10 = tail call ptr @create_persistent_script() #26
  %11 = getelementptr inbounds nuw i8, ptr %5, i64 168
  %12 = load ptr, ptr %11, align 8, !tbaa !409
  %13 = getelementptr inbounds nuw i8, ptr %12, i64 4
  %14 = load i32, ptr %13, align 4, !tbaa !64
  %15 = and i32 %14, 64
  %.not.i13 = icmp eq i32 %15, 0
  br i1 %.not.i13, label %16, label %zend_string_copy.exit

16:                                               ; preds = %9
  %17 = load i32, ptr %12, align 4, !tbaa !63
  %18 = add i32 %17, 1
  store i32 %18, ptr %12, align 4, !tbaa !63
  br label %zend_string_copy.exit

zend_string_copy.exit:                            ; preds = %9, %16
  store ptr %12, ptr %10, align 8, !tbaa !141
  %19 = getelementptr inbounds nuw i8, ptr %12, i64 8
  %20 = load i64, ptr %19, align 8, !tbaa !56
  %.not.i = icmp eq i64 %20, 0
  br i1 %.not.i, label %21, label %zend_string_hash_val.exit

21:                                               ; preds = %zend_string_copy.exit
  %22 = tail call i64 @zend_string_hash_func(ptr noundef nonnull %12) #26
  %.pre = load ptr, ptr %10, align 8, !tbaa !141
  br label %zend_string_hash_val.exit

zend_string_hash_val.exit:                        ; preds = %zend_string_copy.exit, %21
  %23 = phi ptr [ %12, %zend_string_copy.exit ], [ %.pre, %21 ]
  %24 = getelementptr inbounds nuw i8, ptr %10, i64 8
  tail call void @llvm.memcpy.p0.p0.i64(ptr noundef nonnull align 8 dereferenceable(256) %24, ptr noundef nonnull align 8 dereferenceable(256) %5, i64 256, i1 false), !tbaa.struct !227
  store ptr null, ptr %7, align 8, !tbaa !404
  %25 = load ptr, ptr @preload_scripts, align 8, !tbaa !231
  call void @llvm.lifetime.start.p0(i64 16, ptr nonnull %3) #26
  store ptr %10, ptr %3, align 8, !tbaa !64
  %26 = getelementptr inbounds nuw i8, ptr %3, i64 8
  store i32 13, ptr %26, align 8, !tbaa !64
  %27 = call ptr @zend_hash_add(ptr noundef %25, ptr noundef %23, ptr noundef nonnull %3) #26
  call void @llvm.lifetime.end.p0(i64 16, ptr nonnull %3) #26
  br label %28

28:                                               ; preds = %zend_string_hash_val.exit, %6, %2
  ret ptr %5
}